target datalayout = "e-m:e-p270:32:32-p271:32:32-p272:64:64-i64:64-i128:128-f80:128-n8:16:32:64-S128"
target triple = "x86_64-pc-linux-gnu"

%"class.std::__shared_count" = type { ptr }
%"class.toku::lock_request" = type { i64, i64, i64, ptr, ptr, %struct.__toku_dbt, %struct.__toku_dbt, i32, ptr, i32, i32, %"class.std::shared_ptr.0", i8, ptr, ptr, ptr, ptr, ptr, %"class.std::function" }
%struct.__toku_dbt = type { ptr, i64, i64, i32 }
%"class.std::shared_ptr.0" = type { %"class.std::__shared_ptr.1" }
%"class.std::__shared_ptr.1" = type { ptr, %"class.std::__shared_count" }
%"class.std::function" = type { %"class.std::_Function_base", ptr }
%"class.std::_Function_base" = type { %"union.std::_Any_data", ptr }
%"union.std::_Any_data" = type { %"union.std::_Nocopy_types" }
%"union.std::_Nocopy_types" = type { { i64, i64 } }

; Function Attrs: mustprogress uwtable
define void @_ZN4toku12lock_request9copy_keysEv(ptr noundef nonnull align 8 dereferenceable(224) %0) #0 align 2 {
  %2 = alloca ptr, align 8
  store ptr %0, ptr %2, align 8, !tbaa !4
  %3 = load ptr, ptr %2, align 8
  %4 = getelementptr inbounds nuw %"class.toku::lock_request", ptr %3, i32 0, i32 3
  %5 = load ptr, ptr %4, align 8, !tbaa !31
  %6 = call noundef zeroext i1 @_Z20toku_dbt_is_infinitePK10__toku_dbt(ptr noundef %5)
  br i1 %6, label %14, label %7

7:                                                ; preds = %1
  %8 = getelementptr inbounds nuw %"class.toku::lock_request", ptr %3, i32 0, i32 5
  %9 = getelementptr inbounds nuw %"class.toku::lock_request", ptr %3, i32 0, i32 3
  %10 = load ptr, ptr %9, align 8, !tbaa !31
  %11 = call noundef ptr @_Z14toku_clone_dbtP10__toku_dbtRKS_(ptr noundef %8, ptr noundef nonnull align 8 dereferenceable(32) %10)
  %12 = getelementptr inbounds nuw %"class.toku::lock_request", ptr %3, i32 0, i32 5
  %13 = getelementptr inbounds nuw %"class.toku::lock_request", ptr %3, i32 0, i32 3
  store ptr %12, ptr %13, align 8, !tbaa !31
  br label %14

14:                                               ; preds = %7, %1
  %15 = getelementptr inbounds nuw %"class.toku::lock_request", ptr %3, i32 0, i32 4
  %16 = load ptr, ptr %15, align 8, !tbaa !32
  %17 = call noundef zeroext i1 @_Z20toku_dbt_is_infinitePK10__toku_dbt(ptr noundef %16)
  br i1 %17, label %25, label %18

18:                                               ; preds = %14
  %19 = getelementptr inbounds nuw %"class.toku::lock_request", ptr %3, i32 0, i32 6
  %20 = getelementptr inbounds nuw %"class.toku::lock_request", ptr %3, i32 0, i32 4
  %21 = load ptr, ptr %20, align 8, !tbaa !32
  %22 = call noundef ptr @_Z14toku_clone_dbtP10__toku_dbtRKS_(ptr noundef %19, ptr noundef nonnull align 8 dereferenceable(32) %21)
  %23 = getelementptr inbounds nuw %"class.toku::lock_request", ptr %3, i32 0, i32 6
  %24 = getelementptr inbounds nuw %"class.toku::lock_request", ptr %3, i32 0, i32 4
  store ptr %23, ptr %24, align 8, !tbaa !32
  br label %25

25:                                               ; preds = %18, %14
  ret void
}