; Function Attrs: mustprogress uwtable
define void @_ZN4toku12lock_request9copy_keysEv(ptr noundef nonnull align 8 dereferenceable(224) %0) local_unnamed_addr #0 align 2 {
  %2 = getelementptr inbounds nuw i8, ptr %0, i64 24
  %3 = load ptr, ptr %2, align 8, !tbaa !43
  %4 = tail call noundef zeroext i1 @_Z20toku_dbt_is_infinitePK10__toku_dbt(ptr noundef %3)
  br i1 %4, label %9, label %5

5:                                                ; preds = %1
  %6 = getelementptr inbounds nuw i8, ptr %0, i64 40
  %7 = load ptr, ptr %2, align 8, !tbaa !43
  %8 = tail call noundef ptr @_Z14toku_clone_dbtP10__toku_dbtRKS_(ptr noundef nonnull %6, ptr noundef nonnull align 8 dereferenceable(32) %7)
  store ptr %6, ptr %2, align 8, !tbaa !43
  br label %9

9:                                                ; preds = %5, %1
  %10 = getelementptr inbounds nuw i8, ptr %0, i64 32
  %11 = load ptr, ptr %10, align 8, !tbaa !44
  %12 = tail call noundef zeroext i1 @_Z20toku_dbt_is_infinitePK10__toku_dbt(ptr noundef %11)
  br i1 %12, label %17, label %13

13:                                               ; preds = %9
  %14 = getelementptr inbounds nuw i8, ptr %0, i64 72
  %15 = load ptr, ptr %10, align 8, !tbaa !44
  %16 = tail call noundef ptr @_Z14toku_clone_dbtP10__toku_dbtRKS_(ptr noundef nonnull %14, ptr noundef nonnull align 8 dereferenceable(32) %15)
  store ptr %14, ptr %10, align 8, !tbaa !44
  br label %17

17:                                               ; preds = %13, %9
  ret void
}